///////////////////////////////////////////////////////////////////////////////
//                                                                            /
// IAR C/C++ Compiler V8.10.3.10338/W32 for 8051        09/Apr/2026  20:07:59 /
// Copyright 2004-2011 IAR Systems AB.                                        /
//                                                                            /
//    Core               =  plain                                             /
//    Code model         =  banked                                            /
//    Data model         =  large                                             /
//    Calling convention =  xdata reentrant                                   /
//    Constant location  =  data_rom                                          /
//    Dptr setup         =  1,16                                              /
//    Source file        =  D:\PersonalData\Study\TrainingCode\ZStack-CC2530- /
//                          2.5.1a\Projects\zstack\Samples\SampleApp\Source\D /
//                          HT11.c                                            /
//    Command line       =  -f D:\PersonalData\Study\TrainingCode\ZStack-CC25 /
//                          30-2.5.1a\Projects\zstack\Samples\SampleApp\CC253 /
//                          0DB\..\..\..\Tools\CC2530DB\f8wRouter.cfg         /
//                          (-DCPU32MHZ -DROOT=__near_func                    /
//                          -DMAC_CFG_APP_PENDING_QUEUE=TRUE                  /
//                          -DMAC_CFG_TX_DATA_MAX=5 -DMAC_CFG_TX_MAX=8        /
//                          -DMAC_CFG_RX_MAX=5 -DRTR_NWK) -f                  /
//                          D:\PersonalData\Study\TrainingCode\ZStack-CC2530- /
//                          2.5.1a\Projects\zstack\Samples\SampleApp\CC2530DB /
//                          \..\..\..\Tools\CC2530DB\f8wConfig.cfg            /
//                          (-DZIGBEEPRO -DSECURE=0 -DZG_SECURE_DYNAMIC=0     /
//                          -DREFLECTOR -DDEFAULT_CHANLIST=0x00080000         /
//                          -DZDAPP_CONFIG_PAN_ID=0xFFFF                      /
//                          -DNWK_START_DELAY=100 -DEXTENDED_JOINING_RANDOM_M /
//                          ASK=0x007F -DBEACON_REQUEST_DELAY=100             /
//                          -DBEACON_REQ_DELAY_MASK=0x00FF                    /
//                          -DLINK_STATUS_JITTER_MASK=0x007F                  /
//                          -DROUTE_EXPIRY_TIME=30 -DAPSC_ACK_WAIT_DURATION_P /
//                          OLLED=3000 -DNWK_INDIRECT_MSG_TIMEOUT=7           /
//                          -DMAX_RREQ_ENTRIES=8 -DAPSC_MAX_FRAME_RETRIES=3   /
//                          -DNWK_MAX_DATA_RETRIES=2                          /
//                          -DMAX_POLL_FAILURE_RETRIES=2 -DMAX_BCAST=9        /
//                          -DAPS_MAX_GROUPS=16 -DMAX_RTG_ENTRIES=40          /
//                          -DNWK_MAX_BINDING_ENTRIES=4                       /
//                          -DMAX_BINDING_CLUSTER_IDS=4                       /
//                          "-DDEFAULT_KEY={0x01, 0x03, 0x05, 0x07, 0x09,     /
//                          0x0B, 0x0D, 0x0F, 0x00, 0x02, 0x04, 0x06, 0x08,   /
//                          0x0A, 0x0C, 0x0D}" -DMAC_MAX_FRAME_SIZE=116       /
//                          -DZDNWKMGR_MIN_TRANSMISSIONS=20 "-DCONST=const    /
//                          __code" -DGENERIC=__generic                       /
//                          -DRFD_RCVC_ALWAYS_ON=FALSE -DPOLL_RATE=1000       /
//                          -DQUEUED_POLL_RATE=100 -DRESPONSE_POLL_RATE=100)  /
//                          -DREJOIN_POLL_RATE=440 D:\PersonalData\Study\Trai /
//                          ningCode\ZStack-CC2530-2.5.1a\Projects\zstack\Sam /
//                          ples\SampleApp\Source\DHT11.c -D ZTOOL_P1 -D      /
//                          MT_TASK -D MT_SYS_FUNC -D MT_ZDO_FUNC -D          /
//                          LCD_SUPPORTED=DEBUG -lC                           /
//                          D:\PersonalData\Study\TrainingCode\ZStack-CC2530- /
//                          2.5.1a\Projects\zstack\Samples\SampleApp\CC2530DB /
//                          \RouterEB\List\ -lA D:\PersonalData\Study\Trainin /
//                          gCode\ZStack-CC2530-2.5.1a\Projects\zstack\Sample /
//                          s\SampleApp\CC2530DB\RouterEB\List\               /
//                          --diag_suppress Pe001,Pa010 -o                    /
//                          D:\PersonalData\Study\TrainingCode\ZStack-CC2530- /
//                          2.5.1a\Projects\zstack\Samples\SampleApp\CC2530DB /
//                          \RouterEB\Obj\ -e --no_code_motion --debug        /
//                          --core=plain --dptr=16,1 --data_model=large       /
//                          --code_model=banked --calling_convention=xdata_re /
//                          entrant --place_constants=data_rom                /
//                          --nr_virtual_regs 16 -I                           /
//                          D:\PersonalData\Study\TrainingCode\ZStack-CC2530- /
//                          2.5.1a\Projects\zstack\Samples\SampleApp\CC2530DB /
//                          \ -I D:\PersonalData\Study\TrainingCode\ZStack-CC /
//                          2530-2.5.1a\Projects\zstack\Samples\SampleApp\CC2 /
//                          530DB\..\Source\ -I D:\PersonalData\Study\Trainin /
//                          gCode\ZStack-CC2530-2.5.1a\Projects\zstack\Sample /
//                          s\SampleApp\CC2530DB\..\..\..\ZMain\TI2530DB\ -I  /
//                          D:\PersonalData\Study\TrainingCode\ZStack-CC2530- /
//                          2.5.1a\Projects\zstack\Samples\SampleApp\CC2530DB /
//                          \..\..\..\..\..\Components\hal\include\ -I        /
//                          D:\PersonalData\Study\TrainingCode\ZStack-CC2530- /
//                          2.5.1a\Projects\zstack\Samples\SampleApp\CC2530DB /
//                          \..\..\..\..\..\Components\hal\target\CC2530EB\   /
//                          -I D:\PersonalData\Study\TrainingCode\ZStack-CC25 /
//                          30-2.5.1a\Projects\zstack\Samples\SampleApp\CC253 /
//                          0DB\..\..\..\..\..\Components\mac\include\ -I     /
//                          D:\PersonalData\Study\TrainingCode\ZStack-CC2530- /
//                          2.5.1a\Projects\zstack\Samples\SampleApp\CC2530DB /
//                          \..\..\..\..\..\Components\mac\high_level\ -I     /
//                          D:\PersonalData\Study\TrainingCode\ZStack-CC2530- /
//                          2.5.1a\Projects\zstack\Samples\SampleApp\CC2530DB /
//                          \..\..\..\..\..\Components\mac\low_level\srf04\   /
//                          -I D:\PersonalData\Study\TrainingCode\ZStack-CC25 /
//                          30-2.5.1a\Projects\zstack\Samples\SampleApp\CC253 /
//                          0DB\..\..\..\..\..\Components\mac\low_level\srf04 /
//                          \single_chip\ -I D:\PersonalData\Study\TrainingCo /
//                          de\ZStack-CC2530-2.5.1a\Projects\zstack\Samples\S /
//                          ampleApp\CC2530DB\..\..\..\..\..\Components\mt\   /
//                          -I D:\PersonalData\Study\TrainingCode\ZStack-CC25 /
//                          30-2.5.1a\Projects\zstack\Samples\SampleApp\CC253 /
//                          0DB\..\..\..\..\..\Components\osal\include\ -I    /
//                          D:\PersonalData\Study\TrainingCode\ZStack-CC2530- /
//                          2.5.1a\Projects\zstack\Samples\SampleApp\CC2530DB /
//                          \..\..\..\..\..\Components\services\saddr\ -I     /
//                          D:\PersonalData\Study\TrainingCode\ZStack-CC2530- /
//                          2.5.1a\Projects\zstack\Samples\SampleApp\CC2530DB /
//                          \..\..\..\..\..\Components\services\sdata\ -I     /
//                          D:\PersonalData\Study\TrainingCode\ZStack-CC2530- /
//                          2.5.1a\Projects\zstack\Samples\SampleApp\CC2530DB /
//                          \..\..\..\..\..\Components\stack\af\ -I           /
//                          D:\PersonalData\Study\TrainingCode\ZStack-CC2530- /
//                          2.5.1a\Projects\zstack\Samples\SampleApp\CC2530DB /
//                          \..\..\..\..\..\Components\stack\nwk\ -I          /
//                          D:\PersonalData\Study\TrainingCode\ZStack-CC2530- /
//                          2.5.1a\Projects\zstack\Samples\SampleApp\CC2530DB /
//                          \..\..\..\..\..\Components\stack\sapi\ -I         /
//                          D:\PersonalData\Study\TrainingCode\ZStack-CC2530- /
//                          2.5.1a\Projects\zstack\Samples\SampleApp\CC2530DB /
//                          \..\..\..\..\..\Components\stack\sec\ -I          /
//                          D:\PersonalData\Study\TrainingCode\ZStack-CC2530- /
//                          2.5.1a\Projects\zstack\Samples\SampleApp\CC2530DB /
//                          \..\..\..\..\..\Components\stack\sys\ -I          /
//                          D:\PersonalData\Study\TrainingCode\ZStack-CC2530- /
//                          2.5.1a\Projects\zstack\Samples\SampleApp\CC2530DB /
//                          \..\..\..\..\..\Components\stack\zdo\ -I          /
//                          D:\PersonalData\Study\TrainingCode\ZStack-CC2530- /
//                          2.5.1a\Projects\zstack\Samples\SampleApp\CC2530DB /
//                          \..\..\..\..\..\Components\zmac\ -I               /
//                          D:\PersonalData\Study\TrainingCode\ZStack-CC2530- /
//                          2.5.1a\Projects\zstack\Samples\SampleApp\CC2530DB /
//                          \..\..\..\..\..\Components\zmac\f8w\ -Ohz         /
//                          --require_prototypes                              /
//    List file          =  D:\PersonalData\Study\TrainingCode\ZStack-CC2530- /
//                          2.5.1a\Projects\zstack\Samples\SampleApp\CC2530DB /
//                          \RouterEB\List\DHT11.s51                          /
//                                                                            /
//                                                                            /
///////////////////////////////////////////////////////////////////////////////

        NAME DHT11

        RTMODEL "__SystemLibrary", "CLib"
        RTMODEL "__calling_convention", "xdata_reentrant"
        RTMODEL "__code_model", "banked"
        RTMODEL "__core", "plain"
        RTMODEL "__data_model", "large"
        RTMODEL "__dptr_size", "16"
        RTMODEL "__extended_stack", "disabled"
        RTMODEL "__location_for_constants", "data"
        RTMODEL "__number_of_dptrs", "1"
        RTMODEL "__rt_version", "1"

        RSEG DOVERLAY:DATA:NOROOT(0)
        RSEG IOVERLAY:IDATA:NOROOT(0)
        RSEG ISTACK:IDATA:NOROOT(0)
        RSEG PSTACK:XDATA:NOROOT(0)
        RSEG XSTACK:XDATA:NOROOT(0)

        EXTERN ?BANKED_ENTER_XDATA
        EXTERN ?BANKED_LEAVE_XDATA
        EXTERN ?BDISPATCH
        EXTERN ?BRET
        EXTERN ?V0
        EXTERN __INIT_XDATA_Z

        PUBLIC ??DHT11_Init?relay
        FUNCTION ??DHT11_Init?relay,0203H
        PUBLIC ??DHT11_Read?relay
        FUNCTION ??DHT11_Read?relay,0203H
        FUNCTION ??delay_ms?relay,0203H
        FUNCTION ??delay_us?relay,0203H
        FUNCTION ??dht11_read_byte?relay,0203H
        FUNCTION ??dht11_wait_for_level?relay,0203H
        PUBLIC DHT11_Init
        FUNCTION DHT11_Init,021203H
        ARGFRAME XSTACK, 0, STACK
        LOCFRAME ISTACK, 2, STACK
        PUBLIC DHT11_LastErr
        PUBLIC DHT11_LastRaw
        PUBLIC DHT11_Read
        FUNCTION DHT11_Read,021203H
        ARGFRAME XSTACK, 0, STACK
        LOCFRAME ISTACK, 1, STACK
        LOCFRAME XSTACK, 15, STACK
        PUBWEAK P2DIR
        PUBWEAK P2SEL
        PUBWEAK _A_IEN0
        PUBWEAK _A_P2
        FUNCTION delay_ms,021203H
        ARGFRAME XSTACK, 15, STACK
        ARGFRAME IOVERLAY, 0, STATIC
        ARGFRAME DOVERLAY, 0, STATIC
        LOCFRAME XSTACK, 11, STACK
        FUNCTION delay_us,080203H
        ARGFRAME XSTACK, 15, STACK
        ARGFRAME IOVERLAY, 0, STATIC
        ARGFRAME DOVERLAY, 0, STATIC
        FUNCTION dht11_read_byte,021203H
        ARGFRAME XSTACK, 15, STACK
        ARGFRAME IOVERLAY, 0, STATIC
        ARGFRAME DOVERLAY, 0, STATIC
        LOCFRAME XSTACK, 9, STACK
        FUNCTION dht11_wait_for_level,021203H
        ARGFRAME XSTACK, 15, STACK
        ARGFRAME IOVERLAY, 0, STATIC
        ARGFRAME DOVERLAY, 0, STATIC
        LOCFRAME XSTACK, 9, STACK
        
        CFI Names cfiNames0
        CFI StackFrame CFA_SP SP IDATA
        CFI StackFrame CFA_PSP16 PSP16 XDATA
        CFI StackFrame CFA_XSP16 XSP16 XDATA
        CFI StaticOverlayFrame CFA_IOVERLAY IOVERLAY
        CFI StaticOverlayFrame CFA_DOVERLAY DOVERLAY
        CFI Resource `PSW.CY`:1, `B.BR0`:1, `B.BR1`:1, `B.BR2`:1, `B.BR3`:1
        CFI Resource `B.BR4`:1, `B.BR5`:1, `B.BR6`:1, `B.BR7`:1, `VB.BR8`:1
        CFI Resource `VB.BR9`:1, `VB.BR10`:1, `VB.BR11`:1, `VB.BR12`:1
        CFI Resource `VB.BR13`:1, `VB.BR14`:1, `VB.BR15`:1, VB:8, B:8, A:8
        CFI Resource PSW:8, DPL0:8, DPH0:8, R0:8, R1:8, R2:8, R3:8, R4:8, R5:8
        CFI Resource R6:8, R7:8, V0:8, V1:8, V2:8, V3:8, V4:8, V5:8, V6:8, V7:8
        CFI Resource V8:8, V9:8, V10:8, V11:8, V12:8, V13:8, V14:8, V15:8, SP:8
        CFI Resource PSPH:8, PSPL:8, PSP16:16, XSPH:8, XSPL:8, XSP16:16
        CFI VirtualResource ?RET:24
        CFI Resource ?BRET_EXT:8
        CFI VirtualResource ?RET_HIGH:8, ?RET_LOW:8
        CFI ResourceParts PSP16 PSPH, PSPL
        CFI ResourceParts XSP16 XSPH, XSPL
        CFI ResourceParts ?RET ?BRET_EXT, ?RET_HIGH, ?RET_LOW
        CFI EndNames cfiNames0
        
        CFI Common cfiCommon0 Using cfiNames0
        CFI CodeAlign 1
        CFI DataAlign -1
        CFI ReturnAddress ?RET CODE
        CFI CFA_DOVERLAY Used
        CFI CFA_IOVERLAY Used
        CFI CFA_SP SP+-3
        CFI CFA_PSP16 PSP16+0
        CFI CFA_XSP16 XSP16+0
        CFI `PSW.CY` SameValue
        CFI `B.BR0` SameValue
        CFI `B.BR1` SameValue
        CFI `B.BR2` SameValue
        CFI `B.BR3` SameValue
        CFI `B.BR4` SameValue
        CFI `B.BR5` SameValue
        CFI `B.BR6` SameValue
        CFI `B.BR7` SameValue
        CFI `VB.BR8` SameValue
        CFI `VB.BR9` SameValue
        CFI `VB.BR10` SameValue
        CFI `VB.BR11` SameValue
        CFI `VB.BR12` SameValue
        CFI `VB.BR13` SameValue
        CFI `VB.BR14` SameValue
        CFI `VB.BR15` SameValue
        CFI VB SameValue
        CFI B Undefined
        CFI A Undefined
        CFI PSW SameValue
        CFI DPL0 SameValue
        CFI DPH0 SameValue
        CFI R0 Undefined
        CFI R1 Undefined
        CFI R2 Undefined
        CFI R3 Undefined
        CFI R4 Undefined
        CFI R5 Undefined
        CFI R6 SameValue
        CFI R7 SameValue
        CFI V0 SameValue
        CFI V1 SameValue
        CFI V2 SameValue
        CFI V3 SameValue
        CFI V4 SameValue
        CFI V5 SameValue
        CFI V6 SameValue
        CFI V7 SameValue
        CFI V8 SameValue
        CFI V9 SameValue
        CFI V10 SameValue
        CFI V11 SameValue
        CFI V12 SameValue
        CFI V13 SameValue
        CFI V14 SameValue
        CFI V15 SameValue
        CFI PSPH Undefined
        CFI PSPL Undefined
        CFI XSPH Undefined
        CFI XSPL Undefined
        CFI ?RET Concat
        CFI ?BRET_EXT Frame(CFA_SP, 3)
        CFI ?RET_HIGH Frame(CFA_SP, 2)
        CFI ?RET_LOW Frame(CFA_SP, 1)
        CFI EndCommon cfiCommon0
        
        
        CFI Common cfiCommon1 Using cfiNames0
        CFI CodeAlign 1
        CFI DataAlign -1
        CFI ReturnAddress ?RET CODE
        CFI CFA_DOVERLAY Used
        CFI CFA_IOVERLAY Used
        CFI CFA_SP SP+-2
        CFI CFA_PSP16 PSP16+0
        CFI CFA_XSP16 XSP16+0
        CFI `PSW.CY` SameValue
        CFI `B.BR0` SameValue
        CFI `B.BR1` SameValue
        CFI `B.BR2` SameValue
        CFI `B.BR3` SameValue
        CFI `B.BR4` SameValue
        CFI `B.BR5` SameValue
        CFI `B.BR6` SameValue
        CFI `B.BR7` SameValue
        CFI `VB.BR8` SameValue
        CFI `VB.BR9` SameValue
        CFI `VB.BR10` SameValue
        CFI `VB.BR11` SameValue
        CFI `VB.BR12` SameValue
        CFI `VB.BR13` SameValue
        CFI `VB.BR14` SameValue
        CFI `VB.BR15` SameValue
        CFI VB SameValue
        CFI B SameValue
        CFI A SameValue
        CFI PSW SameValue
        CFI DPL0 SameValue
        CFI DPH0 SameValue
        CFI R0 SameValue
        CFI R1 SameValue
        CFI R2 SameValue
        CFI R3 SameValue
        CFI R4 SameValue
        CFI R5 SameValue
        CFI R6 SameValue
        CFI R7 SameValue
        CFI V0 SameValue
        CFI V1 SameValue
        CFI V2 SameValue
        CFI V3 SameValue
        CFI V4 SameValue
        CFI V5 SameValue
        CFI V6 SameValue
        CFI V7 SameValue
        CFI V8 SameValue
        CFI V9 SameValue
        CFI V10 SameValue
        CFI V11 SameValue
        CFI V12 SameValue
        CFI V13 SameValue
        CFI V14 SameValue
        CFI V15 SameValue
        CFI PSPH Undefined
        CFI PSPL Undefined
        CFI XSPH Undefined
        CFI XSPL Undefined
        CFI ?RET Concat
        CFI ?BRET_EXT SameValue
        CFI ?RET_HIGH Frame(CFA_SP, 2)
        CFI ?RET_LOW Frame(CFA_SP, 1)
        CFI EndCommon cfiCommon1
        
DHT11_Init          SYMBOL "DHT11_Init"
??DHT11_Init?relay  SYMBOL "?relay", DHT11_Init
DHT11_Read          SYMBOL "DHT11_Read"
??DHT11_Read?relay  SYMBOL "?relay", DHT11_Read

// D:\PersonalData\Study\TrainingCode\ZStack-CC2530-2.5.1a\Projects\zstack\Samples\SampleApp\Source\DHT11.c
//    1 #include <ioCC2530.h>

        ASEGN SFR_AN:DATA:NOROOT,0a0H
// union <unnamed> volatile __sfr _A_P2
_A_P2:
        DATA8
        DS 1

        ASEGN SFR_AN:DATA:NOROOT,0a8H
// union <unnamed> volatile __sfr _A_IEN0
_A_IEN0:
        DATA8
        DS 1

        ASEGN SFR_AN:DATA:NOROOT,0f5H
// unsigned char volatile __sfr P2SEL
P2SEL:
        DATA8
        DS 1

        ASEGN SFR_AN:DATA:NOROOT,0ffH
// unsigned char volatile __sfr P2DIR
P2DIR:
        DATA8
        DS 1
//    2 #include "hal_types.h"
//    3 #include "hal_mcu.h"
//    4 #include "DHT11.h"
//    5 
//    6 #define DHT11_DATA      P2_0
//    7 #define DHT11_PIN_MASK  0x01
//    8 

        RSEG XDATA_Z:XDATA:NOROOT(0)
        DATA8
//    9 uint8 DHT11_LastErr = 0;
DHT11_LastErr:
        DS 1
        REQUIRE __INIT_XDATA_Z

        RSEG XDATA_Z:XDATA:NOROOT(0)
        DATA8
//   10 uint8 DHT11_LastRaw[5] = {0, 0, 0, 0, 0};
DHT11_LastRaw:
        DS 5
        REQUIRE __INIT_XDATA_Z
//   11 

        RSEG XDATA_Z:XDATA:NOROOT(0)
        DATA8
//   12 static uint8 dht11ByteError = 0;
dht11ByteError:
        DS 1
        REQUIRE __INIT_XDATA_Z

        RSEG XDATA_Z:XDATA:NOROOT(0)
        DATA8
//   13 static uint8 dht11Ready = 0;
dht11Ready:
        DS 1
        REQUIRE __INIT_XDATA_Z
//   14 

        RSEG BANKED_CODE:CODE:NOROOT(0)
//   15 static void delay_us(void)
delay_us:
        CFI Block cfiBlock0 Using cfiCommon0
        CFI Function delay_us
        CODE
//   16 {
        ; Saved register size: 0
        ; Auto size: 0
//   17   asm("nop");
        nop
//   18   asm("nop");
        nop
//   19   asm("nop");
        nop
//   20   asm("nop");
        nop
//   21   asm("nop");
        nop
//   22   asm("nop");
        nop
//   23   asm("nop");
        nop
//   24   asm("nop");
        nop
//   25   asm("nop");
        nop
//   26   asm("nop");
        nop
//   27   asm("nop");
        nop
//   28   asm("nop");
        nop
//   29   asm("nop");
        nop
//   30   asm("nop");
        nop
//   31   asm("nop");
        nop
//   32   asm("nop");
        nop
//   33   asm("nop");
        nop
//   34   asm("nop");
        nop
//   35   asm("nop");
        nop
//   36   asm("nop");
        nop
//   37   asm("nop");
        nop
//   38   asm("nop");
        nop
//   39   asm("nop");
        nop
//   40   asm("nop");
        nop
//   41   asm("nop");
        nop
//   42   asm("nop");
        nop
//   43   asm("nop");
        nop
//   44   asm("nop");
        nop
//   45   asm("nop");
        nop
//   46   asm("nop");
        nop
//   47   asm("nop");
        nop
//   48   asm("nop");
        nop
//   49   asm("nop");
        nop
//   50   asm("nop");
        nop
//   51   asm("nop");
        nop
//   52   asm("nop");
        nop
//   53   asm("nop");
        nop
//   54   asm("nop");
        nop
//   55   asm("nop");
        nop
//   56   asm("nop");
        nop
//   57 }
        LJMP    ?BRET
        CFI EndBlock cfiBlock0
//   58 
//   59 static void delay_10us(void)
//   60 {
//   61   delay_us();
//   62   delay_us();
//   63 }
//   64 

        RSEG BANKED_CODE:CODE:NOROOT(0)
//   65 static void delay_ms(uint16 time)
delay_ms:
        CFI Block cfiBlock1 Using cfiCommon0
        CFI Function delay_ms
        CODE
//   66 {
        FUNCALL delay_ms, delay_us
        LOCFRAME ISTACK, 0, STACK
        LOCFRAME PSTACK, 0, STACK
        LOCFRAME XSTACK, 11, STACK
        LOCFRAME IOVERLAY, 0, STATIC
        LOCFRAME DOVERLAY, 0, STATIC
        ARGFRAME ISTACK, 0, STACK
        ARGFRAME PSTACK, 0, STACK
        ARGFRAME XSTACK, 11, STACK
        ARGFRAME IOVERLAY, 0, STATIC
        ARGFRAME DOVERLAY, 0, STATIC
        FUNCALL delay_ms, delay_us
        LOCFRAME ISTACK, 0, STACK
        LOCFRAME PSTACK, 0, STACK
        LOCFRAME XSTACK, 11, STACK
        LOCFRAME IOVERLAY, 0, STATIC
        LOCFRAME DOVERLAY, 0, STATIC
        ARGFRAME ISTACK, 0, STACK
        ARGFRAME PSTACK, 0, STACK
        ARGFRAME XSTACK, 11, STACK
        ARGFRAME IOVERLAY, 0, STATIC
        ARGFRAME DOVERLAY, 0, STATIC
        MOV     A,#-0xb
        LCALL   ?BANKED_ENTER_XDATA
        CFI DPH0 load(1, XDATA, add(CFA_XSP16, literal(-1)))
        CFI DPL0 load(1, XDATA, add(CFA_XSP16, literal(-2)))
        CFI ?BRET_EXT load(1, XDATA, add(CFA_XSP16, literal(-3)))
        CFI ?RET_HIGH load(1, XDATA, add(CFA_XSP16, literal(-4)))
        CFI ?RET_LOW load(1, XDATA, add(CFA_XSP16, literal(-5)))
        CFI R7 load(1, XDATA, add(CFA_XSP16, literal(-6)))
        CFI V2 load(1, XDATA, add(CFA_XSP16, literal(-7)))
        CFI V1 load(1, XDATA, add(CFA_XSP16, literal(-8)))
        CFI V0 load(1, XDATA, add(CFA_XSP16, literal(-9)))
        CFI VB load(1, XDATA, add(CFA_XSP16, literal(-10)))
        CFI R6 load(1, XDATA, add(CFA_XSP16, literal(-11)))
        CFI CFA_SP SP+0
        CFI CFA_XSP16 add(XSP16, 11)
        ; Saved register size: 11
        ; Auto size: 0
        MOV     A,R2
        MOV     R6,A
        MOV     A,R3
        MOV     R7,A
//   67   uint16 i;
//   68   uint8 j;
//   69 
//   70   for(i = 0; i < time; i++)
        MOV     ?V0 + 0,#0x0
        MOV     ?V0 + 1,#0x0
        SJMP    ??delay_ms_0
//   71   {
//   72     for(j = 0; j < 100; j++)
??delay_ms_1:
        MOV     ?V0 + 2,#0x64
//   73     {
//   74       delay_10us();
??delay_ms_2:
        ; Setup parameters for call to function delay_us
        LCALL   ??delay_us?relay
        ; Setup parameters for call to function delay_us
        LCALL   ??delay_us?relay
//   75     }
        DEC     ?V0 + 2
        MOV     A,?V0 + 2
        JNZ     ??delay_ms_2
//   76   }
        MOV     A,?V0 + 0
        ADD     A,#0x1
        MOV     ?V0 + 0,A
        MOV     A,?V0 + 1
        ADDC    A,#0x0
        MOV     ?V0 + 1,A
??delay_ms_0:
        CLR     C
        MOV     A,?V0 + 0
        SUBB    A,R6
        MOV     A,?V0 + 1
        SUBB    A,R7
        JC      ??delay_ms_1
//   77 }
        MOV     R7,#0x3
        LJMP    ?BANKED_LEAVE_XDATA
        CFI EndBlock cfiBlock1
//   78 

        RSEG BANKED_CODE:CODE:NOROOT(0)
//   79 static uint8 dht11_wait_for_level(uint8 level, uint16 timeout)
dht11_wait_for_level:
        CFI Block cfiBlock2 Using cfiCommon0
        CFI Function dht11_wait_for_level
        CODE
//   80 {
        FUNCALL dht11_wait_for_level, delay_us
        LOCFRAME ISTACK, 0, STACK
        LOCFRAME PSTACK, 0, STACK
        LOCFRAME XSTACK, 9, STACK
        LOCFRAME IOVERLAY, 0, STATIC
        LOCFRAME DOVERLAY, 0, STATIC
        ARGFRAME ISTACK, 0, STACK
        ARGFRAME PSTACK, 0, STACK
        ARGFRAME XSTACK, 9, STACK
        ARGFRAME IOVERLAY, 0, STATIC
        ARGFRAME DOVERLAY, 0, STATIC
        MOV     A,#-0x9
        LCALL   ?BANKED_ENTER_XDATA
        CFI DPH0 load(1, XDATA, add(CFA_XSP16, literal(-1)))
        CFI DPL0 load(1, XDATA, add(CFA_XSP16, literal(-2)))
        CFI ?BRET_EXT load(1, XDATA, add(CFA_XSP16, literal(-3)))
        CFI ?RET_HIGH load(1, XDATA, add(CFA_XSP16, literal(-4)))
        CFI ?RET_LOW load(1, XDATA, add(CFA_XSP16, literal(-5)))
        CFI R7 load(1, XDATA, add(CFA_XSP16, literal(-6)))
        CFI V0 load(1, XDATA, add(CFA_XSP16, literal(-7)))
        CFI VB load(1, XDATA, add(CFA_XSP16, literal(-8)))
        CFI R6 load(1, XDATA, add(CFA_XSP16, literal(-9)))
        CFI CFA_SP SP+0
        CFI CFA_XSP16 add(XSP16, 9)
        ; Saved register size: 9
        ; Auto size: 0
        MOV     ?V0 + 0,R1
        MOV     A,R2
        MOV     R6,A
        MOV     A,R3
        SJMP    ??dht11_wait_for_level_0
//   81   while(timeout > 0)
//   82   {
//   83     if((uint8)DHT11_DATA == level)
//   84     {
//   85       return 1;
//   86     }
//   87 
//   88     delay_us();
??dht11_wait_for_level_1:
        ; Setup parameters for call to function delay_us
        LCALL   ??delay_us?relay
//   89     timeout--;
        MOV     A,R6
        ADD     A,#-0x1
        DEC     R6
        MOV     A,R7
        ADDC    A,#-0x1
??dht11_wait_for_level_0:
        MOV     R7,A
        MOV     A,R6
        ORL     A,R7
        JZ      ??dht11_wait_for_level_2
        MOV     C,0xa0.0
        CLR     A
        RLC     A
        XRL     A,?V0 + 0
        JNZ     ??dht11_wait_for_level_1
        MOV     R1,#0x1
        SJMP    ??dht11_wait_for_level_3
//   90   }
//   91 
//   92   return 0;
??dht11_wait_for_level_2:
        MOV     R1,#0x0
        CFI EndBlock cfiBlock2
??dht11_wait_for_level_3:
        REQUIRE ?Subroutine0
        REQUIRE _A_P2
        ; // Fall through to label ?Subroutine0
//   93 }

        RSEG BANKED_CODE:CODE:NOROOT(0)
?Subroutine0:
        CFI Block cfiBlock3 Using cfiCommon0
        CFI NoFunction
        CFI CFA_SP SP+0
        CFI CFA_XSP16 add(XSP16, 9)
        CFI VB load(1, XDATA, add(CFA_XSP16, literal(-8)))
        CFI DPL0 load(1, XDATA, add(CFA_XSP16, literal(-2)))
        CFI DPH0 load(1, XDATA, add(CFA_XSP16, literal(-1)))
        CFI R6 load(1, XDATA, add(CFA_XSP16, literal(-9)))
        CFI R7 load(1, XDATA, add(CFA_XSP16, literal(-6)))
        CFI V0 load(1, XDATA, add(CFA_XSP16, literal(-7)))
        CFI ?BRET_EXT load(1, XDATA, add(CFA_XSP16, literal(-3)))
        CFI ?RET_HIGH load(1, XDATA, add(CFA_XSP16, literal(-4)))
        CFI ?RET_LOW load(1, XDATA, add(CFA_XSP16, literal(-5)))
        MOV     R7,#0x1
        LJMP    ?BANKED_LEAVE_XDATA
        CFI EndBlock cfiBlock3
//   94 

        RSEG BANKED_CODE:CODE:NOROOT(0)
//   95 static uint8 dht11_read_byte(uint8 index)
dht11_read_byte:
        CFI Block cfiBlock4 Using cfiCommon0
        CFI Function dht11_read_byte
        CODE
//   96 {
        FUNCALL dht11_read_byte, dht11_wait_for_level
        LOCFRAME ISTACK, 0, STACK
        LOCFRAME PSTACK, 0, STACK
        LOCFRAME XSTACK, 9, STACK
        LOCFRAME IOVERLAY, 0, STATIC
        LOCFRAME DOVERLAY, 0, STATIC
        ARGFRAME ISTACK, 0, STACK
        ARGFRAME PSTACK, 0, STACK
        ARGFRAME XSTACK, 9, STACK
        ARGFRAME IOVERLAY, 0, STATIC
        ARGFRAME DOVERLAY, 0, STATIC
        FUNCALL dht11_read_byte, delay_us
        LOCFRAME ISTACK, 0, STACK
        LOCFRAME PSTACK, 0, STACK
        LOCFRAME XSTACK, 9, STACK
        LOCFRAME IOVERLAY, 0, STATIC
        LOCFRAME DOVERLAY, 0, STATIC
        ARGFRAME ISTACK, 0, STACK
        ARGFRAME PSTACK, 0, STACK
        ARGFRAME XSTACK, 9, STACK
        ARGFRAME IOVERLAY, 0, STATIC
        ARGFRAME DOVERLAY, 0, STATIC
        FUNCALL dht11_read_byte, delay_us
        LOCFRAME ISTACK, 0, STACK
        LOCFRAME PSTACK, 0, STACK
        LOCFRAME XSTACK, 9, STACK
        LOCFRAME IOVERLAY, 0, STATIC
        LOCFRAME DOVERLAY, 0, STATIC
        ARGFRAME ISTACK, 0, STACK
        ARGFRAME PSTACK, 0, STACK
        ARGFRAME XSTACK, 9, STACK
        ARGFRAME IOVERLAY, 0, STATIC
        ARGFRAME DOVERLAY, 0, STATIC
        FUNCALL dht11_read_byte, delay_us
        LOCFRAME ISTACK, 0, STACK
        LOCFRAME PSTACK, 0, STACK
        LOCFRAME XSTACK, 9, STACK
        LOCFRAME IOVERLAY, 0, STATIC
        LOCFRAME DOVERLAY, 0, STATIC
        ARGFRAME ISTACK, 0, STACK
        ARGFRAME PSTACK, 0, STACK
        ARGFRAME XSTACK, 9, STACK
        ARGFRAME IOVERLAY, 0, STATIC
        ARGFRAME DOVERLAY, 0, STATIC
        FUNCALL dht11_read_byte, delay_us
        LOCFRAME ISTACK, 0, STACK
        LOCFRAME PSTACK, 0, STACK
        LOCFRAME XSTACK, 9, STACK
        LOCFRAME IOVERLAY, 0, STATIC
        LOCFRAME DOVERLAY, 0, STATIC
        ARGFRAME ISTACK, 0, STACK
        ARGFRAME PSTACK, 0, STACK
        ARGFRAME XSTACK, 9, STACK
        ARGFRAME IOVERLAY, 0, STATIC
        ARGFRAME DOVERLAY, 0, STATIC
        FUNCALL dht11_read_byte, delay_us
        LOCFRAME ISTACK, 0, STACK
        LOCFRAME PSTACK, 0, STACK
        LOCFRAME XSTACK, 9, STACK
        LOCFRAME IOVERLAY, 0, STATIC
        LOCFRAME DOVERLAY, 0, STATIC
        ARGFRAME ISTACK, 0, STACK
        ARGFRAME PSTACK, 0, STACK
        ARGFRAME XSTACK, 9, STACK
        ARGFRAME IOVERLAY, 0, STATIC
        ARGFRAME DOVERLAY, 0, STATIC
        FUNCALL dht11_read_byte, delay_us
        LOCFRAME ISTACK, 0, STACK
        LOCFRAME PSTACK, 0, STACK
        LOCFRAME XSTACK, 9, STACK
        LOCFRAME IOVERLAY, 0, STATIC
        LOCFRAME DOVERLAY, 0, STATIC
        ARGFRAME ISTACK, 0, STACK
        ARGFRAME PSTACK, 0, STACK
        ARGFRAME XSTACK, 9, STACK
        ARGFRAME IOVERLAY, 0, STATIC
        ARGFRAME DOVERLAY, 0, STATIC
        FUNCALL dht11_read_byte, dht11_wait_for_level
        LOCFRAME ISTACK, 0, STACK
        LOCFRAME PSTACK, 0, STACK
        LOCFRAME XSTACK, 9, STACK
        LOCFRAME IOVERLAY, 0, STATIC
        LOCFRAME DOVERLAY, 0, STATIC
        ARGFRAME ISTACK, 0, STACK
        ARGFRAME PSTACK, 0, STACK
        ARGFRAME XSTACK, 9, STACK
        ARGFRAME IOVERLAY, 0, STATIC
        ARGFRAME DOVERLAY, 0, STATIC
        MOV     A,#-0x9
        LCALL   ?BANKED_ENTER_XDATA
        CFI DPH0 load(1, XDATA, add(CFA_XSP16, literal(-1)))
        CFI DPL0 load(1, XDATA, add(CFA_XSP16, literal(-2)))
        CFI ?BRET_EXT load(1, XDATA, add(CFA_XSP16, literal(-3)))
        CFI ?RET_HIGH load(1, XDATA, add(CFA_XSP16, literal(-4)))
        CFI ?RET_LOW load(1, XDATA, add(CFA_XSP16, literal(-5)))
        CFI R7 load(1, XDATA, add(CFA_XSP16, literal(-6)))
        CFI V0 load(1, XDATA, add(CFA_XSP16, literal(-7)))
        CFI VB load(1, XDATA, add(CFA_XSP16, literal(-8)))
        CFI R6 load(1, XDATA, add(CFA_XSP16, literal(-9)))
        CFI CFA_SP SP+0
        CFI CFA_XSP16 add(XSP16, 9)
        ; Saved register size: 9
        ; Auto size: 0
        MOV     ?V0 + 0,R1
//   97   uint8 i;
//   98   uint8 value = 0;
        MOV     R6,#0x0
//   99 
//  100   dht11ByteError = 0;
        MOV     DPTR,#dht11ByteError
        CLR     A
        MOVX    @DPTR,A
//  101 
//  102   for(i = 0; i < 8; i++)
        MOV     R7,#0x8
//  103   {
//  104     if(!dht11_wait_for_level(1, 100))
??dht11_read_byte_0:
        ; Setup parameters for call to function dht11_wait_for_level
        MOV     R2,#0x64
        MOV     R3,#0x0
        MOV     R1,#0x1
        LCALL   ??dht11_wait_for_level?relay
        MOV     A,R1
        JNZ     ??dht11_read_byte_1
//  105     {
//  106       DHT11_LastErr = 0x10 + index;
        MOV     A,#0x10
??dht11_read_byte_2:
        ADD     A,?V0 + 0
        MOV     DPTR,#DHT11_LastErr
        MOVX    @DPTR,A
//  107       dht11ByteError = 1;
        MOV     DPTR,#dht11ByteError
        MOV     A,#0x1
        MOVX    @DPTR,A
//  108       return 0;
        MOV     R1,#0x0
        SJMP    ??dht11_read_byte_3
//  109     }
//  110 
//  111     delay_10us();
??dht11_read_byte_1:
        ; Setup parameters for call to function delay_us
        LCALL   ?Subroutine1 & 0xFFFF
//  112     delay_10us();
//  113     delay_10us();
//  114 
//  115     value <<= 1;
??CrossCallReturnLabel_0:
        MOV     A,R6
        CLR     C
        RLC     A
        MOV     R6,A
//  116     if(DHT11_DATA)
        MOV     C,0xa0.0
        JNC     ??dht11_read_byte_4
//  117     {
//  118       value |= 0x01;
        SETB    0xE0 /* A   */.0
        MOV     R6,A
//  119     }
//  120 
//  121     if(!dht11_wait_for_level(0, 100))
??dht11_read_byte_4:
        ; Setup parameters for call to function dht11_wait_for_level
        MOV     R2,#0x64
        MOV     R3,#0x0
        MOV     R1,#0x0
        LCALL   ??dht11_wait_for_level?relay
        MOV     A,R1
        JNZ     ??dht11_read_byte_5
//  122     {
//  123       DHT11_LastErr = 0x20 + index;
        MOV     A,#0x20
        SJMP    ??dht11_read_byte_2
//  124       dht11ByteError = 1;
//  125       return 0;
//  126     }
//  127   }
??dht11_read_byte_5:
        DEC     R7
        MOV     A,R7
        JNZ     ??dht11_read_byte_0
//  128 
//  129   return value;
        MOV     A,R6
        MOV     R1,A
??dht11_read_byte_3:
        SJMP    ?Subroutine0
        CFI EndBlock cfiBlock4
        REQUIRE _A_P2
//  130 }
//  131 

        RSEG BANKED_CODE:CODE:NOROOT(0)
//  132 void DHT11_Init(void)
DHT11_Init:
        CFI Block cfiBlock5 Using cfiCommon0
        CFI Function DHT11_Init
        CODE
//  133 {
        FUNCALL DHT11_Init, delay_ms
        LOCFRAME ISTACK, 2, STACK
        LOCFRAME PSTACK, 0, STACK
        LOCFRAME XSTACK, 0, STACK
        LOCFRAME IOVERLAY, 0, STATIC
        LOCFRAME DOVERLAY, 0, STATIC
        ARGFRAME ISTACK, 2, STACK
        ARGFRAME PSTACK, 0, STACK
        ARGFRAME XSTACK, 0, STACK
        ARGFRAME IOVERLAY, 0, STATIC
        ARGFRAME DOVERLAY, 0, STATIC
        PUSH    DPL
        CFI DPL0 Frame(CFA_SP, 4)
        CFI CFA_SP SP+-4
        PUSH    DPH
        CFI DPH0 Frame(CFA_SP, 5)
        CFI CFA_SP SP+-5
        ; Saved register size: 2
        ; Auto size: 0
//  134   P2SEL &= ~DHT11_PIN_MASK;
        ANL     0xf5,#0xfe
//  135   P2DIR |= DHT11_PIN_MASK;
        LCALL   ??Subroutine4_0 & 0xFFFF
//  136   DHT11_DATA = 1;
//  137 
//  138   /* 按资料要求，上电后先给 1s 稳定时间 */
//  139   delay_ms(1000);
??CrossCallReturnLabel_7:
        ; Setup parameters for call to function delay_ms
        MOV     R2,#-0x18
        MOV     R3,#0x3
        LCALL   ??delay_ms?relay
//  140   dht11Ready = 1;
        MOV     DPTR,#dht11Ready
        MOV     A,#0x1
        MOVX    @DPTR,A
//  141 }
        POP     DPH
        CFI DPH0 SameValue
        CFI CFA_SP SP+-4
        POP     DPL
        CFI DPL0 SameValue
        CFI CFA_SP SP+-3
        LJMP    ?BRET
        CFI EndBlock cfiBlock5
        REQUIRE P2SEL
        REQUIRE P2DIR
        REQUIRE _A_P2
//  142 

        RSEG BANKED_CODE:CODE:NOROOT(0)
//  143 uint8 DHT11_Read(uint8 *temperature, uint8 *humidity)
DHT11_Read:
        CFI Block cfiBlock6 Using cfiCommon0
        CFI Function DHT11_Read
        CODE
//  144 {
        FUNCALL DHT11_Read, delay_ms
        LOCFRAME ISTACK, 0, STACK
        LOCFRAME PSTACK, 0, STACK
        LOCFRAME XSTACK, 15, STACK
        LOCFRAME IOVERLAY, 0, STATIC
        LOCFRAME DOVERLAY, 0, STATIC
        ARGFRAME ISTACK, 0, STACK
        ARGFRAME PSTACK, 0, STACK
        ARGFRAME XSTACK, 15, STACK
        ARGFRAME IOVERLAY, 0, STATIC
        ARGFRAME DOVERLAY, 0, STATIC
        FUNCALL DHT11_Read, delay_us
        LOCFRAME ISTACK, 0, STACK
        LOCFRAME PSTACK, 0, STACK
        LOCFRAME XSTACK, 15, STACK
        LOCFRAME IOVERLAY, 0, STATIC
        LOCFRAME DOVERLAY, 0, STATIC
        ARGFRAME ISTACK, 0, STACK
        ARGFRAME PSTACK, 0, STACK
        ARGFRAME XSTACK, 15, STACK
        ARGFRAME IOVERLAY, 0, STATIC
        ARGFRAME DOVERLAY, 0, STATIC
        FUNCALL DHT11_Read, delay_us
        LOCFRAME ISTACK, 0, STACK
        LOCFRAME PSTACK, 0, STACK
        LOCFRAME XSTACK, 15, STACK
        LOCFRAME IOVERLAY, 0, STATIC
        LOCFRAME DOVERLAY, 0, STATIC
        ARGFRAME ISTACK, 0, STACK
        ARGFRAME PSTACK, 0, STACK
        ARGFRAME XSTACK, 15, STACK
        ARGFRAME IOVERLAY, 0, STATIC
        ARGFRAME DOVERLAY, 0, STATIC
        FUNCALL DHT11_Read, delay_us
        LOCFRAME ISTACK, 0, STACK
        LOCFRAME PSTACK, 0, STACK
        LOCFRAME XSTACK, 15, STACK
        LOCFRAME IOVERLAY, 0, STATIC
        LOCFRAME DOVERLAY, 0, STATIC
        ARGFRAME ISTACK, 0, STACK
        ARGFRAME PSTACK, 0, STACK
        ARGFRAME XSTACK, 15, STACK
        ARGFRAME IOVERLAY, 0, STATIC
        ARGFRAME DOVERLAY, 0, STATIC
        FUNCALL DHT11_Read, delay_us
        LOCFRAME ISTACK, 0, STACK
        LOCFRAME PSTACK, 0, STACK
        LOCFRAME XSTACK, 15, STACK
        LOCFRAME IOVERLAY, 0, STATIC
        LOCFRAME DOVERLAY, 0, STATIC
        ARGFRAME ISTACK, 0, STACK
        ARGFRAME PSTACK, 0, STACK
        ARGFRAME XSTACK, 15, STACK
        ARGFRAME IOVERLAY, 0, STATIC
        ARGFRAME DOVERLAY, 0, STATIC
        FUNCALL DHT11_Read, delay_us
        LOCFRAME ISTACK, 0, STACK
        LOCFRAME PSTACK, 0, STACK
        LOCFRAME XSTACK, 15, STACK
        LOCFRAME IOVERLAY, 0, STATIC
        LOCFRAME DOVERLAY, 0, STATIC
        ARGFRAME ISTACK, 0, STACK
        ARGFRAME PSTACK, 0, STACK
        ARGFRAME XSTACK, 15, STACK
        ARGFRAME IOVERLAY, 0, STATIC
        ARGFRAME DOVERLAY, 0, STATIC
        FUNCALL DHT11_Read, delay_us
        LOCFRAME ISTACK, 0, STACK
        LOCFRAME PSTACK, 0, STACK
        LOCFRAME XSTACK, 15, STACK
        LOCFRAME IOVERLAY, 0, STATIC
        LOCFRAME DOVERLAY, 0, STATIC
        ARGFRAME ISTACK, 0, STACK
        ARGFRAME PSTACK, 0, STACK
        ARGFRAME XSTACK, 15, STACK
        ARGFRAME IOVERLAY, 0, STATIC
        ARGFRAME DOVERLAY, 0, STATIC
        FUNCALL DHT11_Read, dht11_wait_for_level
        LOCFRAME ISTACK, 0, STACK
        LOCFRAME PSTACK, 0, STACK
        LOCFRAME XSTACK, 15, STACK
        LOCFRAME IOVERLAY, 0, STATIC
        LOCFRAME DOVERLAY, 0, STATIC
        ARGFRAME ISTACK, 0, STACK
        ARGFRAME PSTACK, 0, STACK
        ARGFRAME XSTACK, 15, STACK
        ARGFRAME IOVERLAY, 0, STATIC
        ARGFRAME DOVERLAY, 0, STATIC
        FUNCALL DHT11_Read, dht11_wait_for_level
        LOCFRAME ISTACK, 0, STACK
        LOCFRAME PSTACK, 0, STACK
        LOCFRAME XSTACK, 15, STACK
        LOCFRAME IOVERLAY, 0, STATIC
        LOCFRAME DOVERLAY, 0, STATIC
        ARGFRAME ISTACK, 0, STACK
        ARGFRAME PSTACK, 0, STACK
        ARGFRAME XSTACK, 15, STACK
        ARGFRAME IOVERLAY, 0, STATIC
        ARGFRAME DOVERLAY, 0, STATIC
        FUNCALL DHT11_Read, dht11_wait_for_level
        LOCFRAME ISTACK, 0, STACK
        LOCFRAME PSTACK, 0, STACK
        LOCFRAME XSTACK, 15, STACK
        LOCFRAME IOVERLAY, 0, STATIC
        LOCFRAME DOVERLAY, 0, STATIC
        ARGFRAME ISTACK, 0, STACK
        ARGFRAME PSTACK, 0, STACK
        ARGFRAME XSTACK, 15, STACK
        ARGFRAME IOVERLAY, 0, STATIC
        ARGFRAME DOVERLAY, 0, STATIC
        FUNCALL DHT11_Read, dht11_read_byte
        LOCFRAME ISTACK, 0, STACK
        LOCFRAME PSTACK, 0, STACK
        LOCFRAME XSTACK, 15, STACK
        LOCFRAME IOVERLAY, 0, STATIC
        LOCFRAME DOVERLAY, 0, STATIC
        ARGFRAME ISTACK, 0, STACK
        ARGFRAME PSTACK, 0, STACK
        ARGFRAME XSTACK, 15, STACK
        ARGFRAME IOVERLAY, 0, STATIC
        ARGFRAME DOVERLAY, 0, STATIC
        FUNCALL DHT11_Read, dht11_read_byte
        LOCFRAME ISTACK, 0, STACK
        LOCFRAME PSTACK, 0, STACK
        LOCFRAME XSTACK, 15, STACK
        LOCFRAME IOVERLAY, 0, STATIC
        LOCFRAME DOVERLAY, 0, STATIC
        ARGFRAME ISTACK, 0, STACK
        ARGFRAME PSTACK, 0, STACK
        ARGFRAME XSTACK, 15, STACK
        ARGFRAME IOVERLAY, 0, STATIC
        ARGFRAME DOVERLAY, 0, STATIC
        FUNCALL DHT11_Read, dht11_read_byte
        LOCFRAME ISTACK, 0, STACK
        LOCFRAME PSTACK, 0, STACK
        LOCFRAME XSTACK, 15, STACK
        LOCFRAME IOVERLAY, 0, STATIC
        LOCFRAME DOVERLAY, 0, STATIC
        ARGFRAME ISTACK, 0, STACK
        ARGFRAME PSTACK, 0, STACK
        ARGFRAME XSTACK, 15, STACK
        ARGFRAME IOVERLAY, 0, STATIC
        ARGFRAME DOVERLAY, 0, STATIC
        FUNCALL DHT11_Read, dht11_read_byte
        LOCFRAME ISTACK, 0, STACK
        LOCFRAME PSTACK, 0, STACK
        LOCFRAME XSTACK, 15, STACK
        LOCFRAME IOVERLAY, 0, STATIC
        LOCFRAME DOVERLAY, 0, STATIC
        ARGFRAME ISTACK, 0, STACK
        ARGFRAME PSTACK, 0, STACK
        ARGFRAME XSTACK, 15, STACK
        ARGFRAME IOVERLAY, 0, STATIC
        ARGFRAME DOVERLAY, 0, STATIC
        FUNCALL DHT11_Read, dht11_read_byte
        LOCFRAME ISTACK, 0, STACK
        LOCFRAME PSTACK, 0, STACK
        LOCFRAME XSTACK, 15, STACK
        LOCFRAME IOVERLAY, 0, STATIC
        LOCFRAME DOVERLAY, 0, STATIC
        ARGFRAME ISTACK, 0, STACK
        ARGFRAME PSTACK, 0, STACK
        ARGFRAME XSTACK, 15, STACK
        ARGFRAME IOVERLAY, 0, STATIC
        ARGFRAME DOVERLAY, 0, STATIC
        MOV     A,#-0xf
        LCALL   ?BANKED_ENTER_XDATA
        CFI DPH0 load(1, XDATA, add(CFA_XSP16, literal(-1)))
        CFI DPL0 load(1, XDATA, add(CFA_XSP16, literal(-2)))
        CFI ?BRET_EXT load(1, XDATA, add(CFA_XSP16, literal(-3)))
        CFI ?RET_HIGH load(1, XDATA, add(CFA_XSP16, literal(-4)))
        CFI ?RET_LOW load(1, XDATA, add(CFA_XSP16, literal(-5)))
        CFI R7 load(1, XDATA, add(CFA_XSP16, literal(-6)))
        CFI V6 load(1, XDATA, add(CFA_XSP16, literal(-7)))
        CFI V5 load(1, XDATA, add(CFA_XSP16, literal(-8)))
        CFI V4 load(1, XDATA, add(CFA_XSP16, literal(-9)))
        CFI V3 load(1, XDATA, add(CFA_XSP16, literal(-10)))
        CFI V2 load(1, XDATA, add(CFA_XSP16, literal(-11)))
        CFI V1 load(1, XDATA, add(CFA_XSP16, literal(-12)))
        CFI V0 load(1, XDATA, add(CFA_XSP16, literal(-13)))
        CFI VB load(1, XDATA, add(CFA_XSP16, literal(-14)))
        CFI R6 load(1, XDATA, add(CFA_XSP16, literal(-15)))
        CFI CFA_SP SP+0
        CFI CFA_XSP16 add(XSP16, 15)
        ; Saved register size: 15
        ; Auto size: 0
        MOV     A,R2
        MOV     R6,A
        MOV     A,R3
        MOV     R7,A
        MOV     ?V0 + 0,R4
        MOV     ?V0 + 1,R5
//  145   uint8 humidityHigh;
//  146   uint8 humidityLow;
//  147   uint8 temperatureHigh;
//  148   uint8 temperatureLow;
//  149   uint8 checkData;
//  150   uint8 sum;
//  151   halIntState_t intState;
//  152 
//  153   DHT11_LastErr = 0;
        MOV     DPTR,#DHT11_LastErr
        CLR     A
        MOVX    @DPTR,A
//  154   DHT11_LastRaw[0] = 0;
        MOV     DPTR,#DHT11_LastRaw
        MOVX    @DPTR,A
//  155   DHT11_LastRaw[1] = 0;
        INC     DPTR
        MOVX    @DPTR,A
//  156   DHT11_LastRaw[2] = 0;
        INC     DPTR
        MOVX    @DPTR,A
//  157   DHT11_LastRaw[3] = 0;
        INC     DPTR
        MOVX    @DPTR,A
//  158   DHT11_LastRaw[4] = 0;
        INC     DPTR
        MOVX    @DPTR,A
//  159 
//  160   if ((temperature == 0) || (humidity == 0))
        MOV     A,R6
        ORL     A,R7
        JZ      ??DHT11_Read_0
        MOV     A,R4
        ORL     A,?V0 + 1
        JNZ     ??DHT11_Read_1
//  161   {
//  162     DHT11_LastErr = 0x01;
??DHT11_Read_0:
        MOV     DPTR,#DHT11_LastErr
        MOV     A,#0x1
??DHT11_Read_2:
        MOVX    @DPTR,A
//  163     return 0;
??DHT11_Read_3:
        MOV     R1,#0x0
        LJMP    ??DHT11_Read_4 & 0xFFFF
//  164   }
//  165 
//  166   if (!dht11Ready)
??DHT11_Read_1:
        MOV     DPTR,#dht11Ready
        MOVX    A,@DPTR
        JNZ     ??DHT11_Read_5
//  167   {
//  168     DHT11_LastErr = 0x31;
        MOV     DPTR,#DHT11_LastErr
        MOV     A,#0x31
        SJMP    ??DHT11_Read_2
//  169     return 0;
//  170   }
//  171 
//  172   P2SEL &= ~DHT11_PIN_MASK;
??DHT11_Read_5:
        ANL     0xf5,#0xfe
//  173 
//  174   HAL_ENTER_CRITICAL_SECTION(intState);
        MOV     C,0xa8.7
        CLR     A
        RLC     A
        MOV     ?V0 + 2,A
        CLR     0xa8.7
//  175 
//  176   P2DIR |= DHT11_PIN_MASK;
        ORL     0xff,#0x1
//  177   DHT11_DATA = 0;
        CLR     0xa0.0
//  178   delay_ms(20);
        ; Setup parameters for call to function delay_ms
        MOV     R2,#0x14
        MOV     R3,#0x0
        LCALL   ??delay_ms?relay
//  179 
//  180   DHT11_DATA = 1;
        SETB    0xa0.0
//  181   P2DIR &= ~DHT11_PIN_MASK;
        ANL     0xff,#0xfe
//  182 
//  183   delay_10us();
        ; Setup parameters for call to function delay_us
        LCALL   ?Subroutine1 & 0xFFFF
//  184   delay_10us();
//  185   delay_10us();
//  186 
//  187   if(!dht11_wait_for_level(0, 20))
??CrossCallReturnLabel_1:
        ; Setup parameters for call to function dht11_wait_for_level
        MOV     R2,#0x14
        MOV     R3,#0x0
        MOV     R1,#0x0
        LCALL   ??dht11_wait_for_level?relay
        MOV     A,R1
        JNZ     ??DHT11_Read_6
//  188   {
//  189     DHT11_LastErr = 0x02;
        MOV     DPTR,#DHT11_LastErr
        MOV     A,#0x2
??DHT11_Read_7:
        MOVX    @DPTR,A
//  190     HAL_EXIT_CRITICAL_SECTION(intState);
??DHT11_Read_8:
        LCALL   ?Subroutine2 & 0xFFFF
//  191     P2DIR |= DHT11_PIN_MASK;
//  192     DHT11_DATA = 1;
//  193     return 0;
??CrossCallReturnLabel_4:
        SJMP    ??DHT11_Read_3
//  194   }
//  195 
//  196   if(!dht11_wait_for_level(1, 100))
??DHT11_Read_6:
        ; Setup parameters for call to function dht11_wait_for_level
        MOV     R2,#0x64
        MOV     R3,#0x0
        MOV     R1,#0x1
        LCALL   ??dht11_wait_for_level?relay
        MOV     A,R1
        JNZ     ??DHT11_Read_9
//  197   {
//  198     DHT11_LastErr = 0x03;
        MOV     DPTR,#DHT11_LastErr
        MOV     A,#0x3
        SJMP    ??DHT11_Read_7
//  199     HAL_EXIT_CRITICAL_SECTION(intState);
//  200     P2DIR |= DHT11_PIN_MASK;
//  201     DHT11_DATA = 1;
//  202     return 0;
//  203   }
//  204 
//  205   if(!dht11_wait_for_level(0, 100))
??DHT11_Read_9:
        ; Setup parameters for call to function dht11_wait_for_level
        MOV     R2,#0x64
        MOV     R3,#0x0
        MOV     R1,#0x0
        LCALL   ??dht11_wait_for_level?relay
        MOV     A,R1
        JNZ     ??DHT11_Read_10
//  206   {
//  207     DHT11_LastErr = 0x04;
        MOV     DPTR,#DHT11_LastErr
        MOV     A,#0x4
        SJMP    ??DHT11_Read_7
//  208     HAL_EXIT_CRITICAL_SECTION(intState);
//  209     P2DIR |= DHT11_PIN_MASK;
//  210     DHT11_DATA = 1;
//  211     return 0;
//  212   }
//  213 
//  214   humidityHigh = dht11_read_byte(0);
??DHT11_Read_10:
        ; Setup parameters for call to function dht11_read_byte
        MOV     R1,#0x0
        LCALL   ??dht11_read_byte?relay
        MOV     A,R1
        MOV     ?V0 + 3,A
//  215   if(dht11ByteError)
        MOV     DPTR,#dht11ByteError
        MOVX    A,@DPTR
        JNZ     ??DHT11_Read_8
//  216   {
//  217     HAL_EXIT_CRITICAL_SECTION(intState);
//  218     P2DIR |= DHT11_PIN_MASK;
//  219     DHT11_DATA = 1;
//  220     return 0;
//  221   }
//  222   DHT11_LastRaw[0] = humidityHigh;
        MOV     A,R1
        MOV     DPTR,#DHT11_LastRaw
        MOVX    @DPTR,A
//  223 
//  224   humidityLow = dht11_read_byte(1);
        ; Setup parameters for call to function dht11_read_byte
        MOV     R1,#0x1
        LCALL   ??dht11_read_byte?relay
        MOV     A,R1
        MOV     ?V0 + 4,A
//  225   if(dht11ByteError)
        MOV     DPTR,#dht11ByteError
        MOVX    A,@DPTR
        JZ      ??DHT11_Read_11
//  226   {
//  227     HAL_EXIT_CRITICAL_SECTION(intState);
        LCALL   ?Subroutine2 & 0xFFFF
//  228     P2DIR |= DHT11_PIN_MASK;
//  229     DHT11_DATA = 1;
//  230     return 0;
??CrossCallReturnLabel_5:
        LJMP    ??DHT11_Read_3 & 0xFFFF
//  231   }
//  232   DHT11_LastRaw[1] = humidityLow;
??DHT11_Read_11:
        MOV     A,R1
        MOV     DPTR,#DHT11_LastRaw + 1
        MOVX    @DPTR,A
//  233 
//  234   temperatureHigh = dht11_read_byte(2);
        ; Setup parameters for call to function dht11_read_byte
        MOV     R1,#0x2
        LCALL   ??dht11_read_byte?relay
        MOV     A,R1
        MOV     ?V0 + 5,A
//  235   if(dht11ByteError)
        MOV     DPTR,#dht11ByteError
        MOVX    A,@DPTR
        JNZ     ??DHT11_Read_8
//  236   {
//  237     HAL_EXIT_CRITICAL_SECTION(intState);
//  238     P2DIR |= DHT11_PIN_MASK;
//  239     DHT11_DATA = 1;
//  240     return 0;
//  241   }
//  242   DHT11_LastRaw[2] = temperatureHigh;
        MOV     A,R1
        MOV     DPTR,#DHT11_LastRaw + 2
        MOVX    @DPTR,A
//  243 
//  244   temperatureLow = dht11_read_byte(3);
        ; Setup parameters for call to function dht11_read_byte
        MOV     R1,#0x3
        LCALL   ??dht11_read_byte?relay
        MOV     A,R1
        MOV     ?V0 + 6,A
//  245   if(dht11ByteError)
        MOV     DPTR,#dht11ByteError
        MOVX    A,@DPTR
        JNZ     ??DHT11_Read_8
//  246   {
//  247     HAL_EXIT_CRITICAL_SECTION(intState);
//  248     P2DIR |= DHT11_PIN_MASK;
//  249     DHT11_DATA = 1;
//  250     return 0;
//  251   }
//  252   DHT11_LastRaw[3] = temperatureLow;
        MOV     A,R1
        MOV     DPTR,#DHT11_LastRaw + 3
        MOVX    @DPTR,A
//  253 
//  254   checkData = dht11_read_byte(4);
        ; Setup parameters for call to function dht11_read_byte
        MOV     R1,#0x4
        LCALL   ??dht11_read_byte?relay
        MOV     A,R1
        MOV     R0,A
//  255   if(dht11ByteError)
        MOV     DPTR,#dht11ByteError
        MOVX    A,@DPTR
        JZ      $+5
        LJMP    ??DHT11_Read_8 & 0xFFFF
//  256   {
//  257     HAL_EXIT_CRITICAL_SECTION(intState);
//  258     P2DIR |= DHT11_PIN_MASK;
//  259     DHT11_DATA = 1;
//  260     return 0;
//  261   }
//  262   DHT11_LastRaw[4] = checkData;
        MOV     A,R0
        MOV     DPTR,#DHT11_LastRaw + 4
        MOVX    @DPTR,A
//  263 
//  264   HAL_EXIT_CRITICAL_SECTION(intState);
        LCALL   ?Subroutine2 & 0xFFFF
//  265 
//  266   P2DIR |= DHT11_PIN_MASK;
//  267   DHT11_DATA = 1;
//  268 
//  269   sum = humidityHigh + humidityLow + temperatureHigh + temperatureLow;
//  270   if(sum != checkData)
??CrossCallReturnLabel_6:
        MOV     A,?V0 + 3
        ADD     A,?V0 + 4
        ADD     A,?V0 + 5
        ADD     A,?V0 + 6
        XRL     A,R0
        JZ      ??DHT11_Read_12
//  271   {
//  272     DHT11_LastErr = 0x30;
        MOV     DPTR,#DHT11_LastErr
        MOV     A,#0x30
        MOVX    @DPTR,A
//  273     return 0;
        SJMP    ??CrossCallReturnLabel_5
//  274   }
//  275 
//  276   *humidity = humidityHigh;
??DHT11_Read_12:
        MOV     DPL,?V0 + 0
        MOV     DPH,?V0 + 1
        MOV     A,?V0 + 3
        MOVX    @DPTR,A
//  277   *temperature = temperatureHigh;
        MOV     DPL,R6
        MOV     DPH,R7
        MOV     A,?V0 + 5
        MOVX    @DPTR,A
//  278   return 1;
        MOV     R1,#0x1
??DHT11_Read_4:
        MOV     R7,#0x7
        LJMP    ?BANKED_LEAVE_XDATA
        CFI EndBlock cfiBlock6
        REQUIRE P2SEL
        REQUIRE _A_IEN0
        REQUIRE P2DIR
        REQUIRE _A_P2
//  279 }

        RSEG BANKED_CODE:CODE:NOROOT(0)
?Subroutine2:
        CFI Block cfiCond7 Using cfiCommon0
        CFI NoFunction
        CFI Conditional ??CrossCallReturnLabel_4
        CFI R6 load(1, XDATA, add(CFA_XSP16, literal(-15)))
        CFI VB load(1, XDATA, add(CFA_XSP16, literal(-14)))
        CFI V0 load(1, XDATA, add(CFA_XSP16, literal(-13)))
        CFI V1 load(1, XDATA, add(CFA_XSP16, literal(-12)))
        CFI V2 load(1, XDATA, add(CFA_XSP16, literal(-11)))
        CFI V3 load(1, XDATA, add(CFA_XSP16, literal(-10)))
        CFI V4 load(1, XDATA, add(CFA_XSP16, literal(-9)))
        CFI V5 load(1, XDATA, add(CFA_XSP16, literal(-8)))
        CFI V6 load(1, XDATA, add(CFA_XSP16, literal(-7)))
        CFI R7 load(1, XDATA, add(CFA_XSP16, literal(-6)))
        CFI ?RET_LOW load(1, XDATA, add(CFA_XSP16, literal(-5)))
        CFI ?RET_HIGH load(1, XDATA, add(CFA_XSP16, literal(-4)))
        CFI ?BRET_EXT load(1, XDATA, add(CFA_XSP16, literal(-3)))
        CFI DPL0 load(1, XDATA, add(CFA_XSP16, literal(-2)))
        CFI DPH0 load(1, XDATA, add(CFA_XSP16, literal(-1)))
        CFI CFA_SP SP+0
        CFI CFA_XSP16 add(XSP16, 15)
        CFI Block cfiCond8 Using cfiCommon0
        CFI (cfiCond8) NoFunction
        CFI (cfiCond8) Conditional ??CrossCallReturnLabel_5
        CFI (cfiCond8) R6 load(1, XDATA, add(CFA_XSP16, literal(-15)))
        CFI (cfiCond8) VB load(1, XDATA, add(CFA_XSP16, literal(-14)))
        CFI (cfiCond8) V0 load(1, XDATA, add(CFA_XSP16, literal(-13)))
        CFI (cfiCond8) V1 load(1, XDATA, add(CFA_XSP16, literal(-12)))
        CFI (cfiCond8) V2 load(1, XDATA, add(CFA_XSP16, literal(-11)))
        CFI (cfiCond8) V3 load(1, XDATA, add(CFA_XSP16, literal(-10)))
        CFI (cfiCond8) V4 load(1, XDATA, add(CFA_XSP16, literal(-9)))
        CFI (cfiCond8) V5 load(1, XDATA, add(CFA_XSP16, literal(-8)))
        CFI (cfiCond8) V6 load(1, XDATA, add(CFA_XSP16, literal(-7)))
        CFI (cfiCond8) R7 load(1, XDATA, add(CFA_XSP16, literal(-6)))
        CFI (cfiCond8) ?RET_LOW load(1, XDATA, add(CFA_XSP16, literal(-5)))
        CFI (cfiCond8) ?RET_HIGH load(1, XDATA, add(CFA_XSP16, literal(-4)))
        CFI (cfiCond8) ?BRET_EXT load(1, XDATA, add(CFA_XSP16, literal(-3)))
        CFI (cfiCond8) DPL0 load(1, XDATA, add(CFA_XSP16, literal(-2)))
        CFI (cfiCond8) DPH0 load(1, XDATA, add(CFA_XSP16, literal(-1)))
        CFI (cfiCond8) CFA_SP SP+0
        CFI (cfiCond8) CFA_XSP16 add(XSP16, 15)
        CFI Block cfiCond9 Using cfiCommon0
        CFI (cfiCond9) NoFunction
        CFI (cfiCond9) Conditional ??CrossCallReturnLabel_6
        CFI (cfiCond9) R6 load(1, XDATA, add(CFA_XSP16, literal(-15)))
        CFI (cfiCond9) VB load(1, XDATA, add(CFA_XSP16, literal(-14)))
        CFI (cfiCond9) V0 load(1, XDATA, add(CFA_XSP16, literal(-13)))
        CFI (cfiCond9) V1 load(1, XDATA, add(CFA_XSP16, literal(-12)))
        CFI (cfiCond9) V2 load(1, XDATA, add(CFA_XSP16, literal(-11)))
        CFI (cfiCond9) V3 load(1, XDATA, add(CFA_XSP16, literal(-10)))
        CFI (cfiCond9) V4 load(1, XDATA, add(CFA_XSP16, literal(-9)))
        CFI (cfiCond9) V5 load(1, XDATA, add(CFA_XSP16, literal(-8)))
        CFI (cfiCond9) V6 load(1, XDATA, add(CFA_XSP16, literal(-7)))
        CFI (cfiCond9) R7 load(1, XDATA, add(CFA_XSP16, literal(-6)))
        CFI (cfiCond9) ?RET_LOW load(1, XDATA, add(CFA_XSP16, literal(-5)))
        CFI (cfiCond9) ?RET_HIGH load(1, XDATA, add(CFA_XSP16, literal(-4)))
        CFI (cfiCond9) ?BRET_EXT load(1, XDATA, add(CFA_XSP16, literal(-3)))
        CFI (cfiCond9) DPL0 load(1, XDATA, add(CFA_XSP16, literal(-2)))
        CFI (cfiCond9) DPH0 load(1, XDATA, add(CFA_XSP16, literal(-1)))
        CFI (cfiCond9) CFA_SP SP+0
        CFI (cfiCond9) CFA_XSP16 add(XSP16, 15)
        CFI Block cfiPicker10 Using cfiCommon1
        CFI (cfiPicker10) NoFunction
        CFI (cfiPicker10) Picker
        MOV     A,?V0 + 2
        MOV     C,0xE0 /* A   */.0
        MOV     0xa8.7,C
        CFI EndBlock cfiCond7
        CFI EndBlock cfiCond8
        CFI EndBlock cfiCond9
        CFI EndBlock cfiPicker10
        REQUIRE ??Subroutine4_0
        ; // Fall through to label ??Subroutine4_0

        RSEG BANKED_CODE:CODE:NOROOT(0)
??Subroutine4_0:
        CFI Block cfiCond11 Using cfiCommon0
        CFI NoFunction
        CFI Conditional ??CrossCallReturnLabel_7
        CFI DPL0 Frame(CFA_SP, 4)
        CFI DPH0 Frame(CFA_SP, 5)
        CFI CFA_SP SP+-5
        CFI Block cfiCond12 Using cfiCommon0
        CFI (cfiCond12) NoFunction
        CFI (cfiCond12) Conditional ??CrossCallReturnLabel_4
        CFI (cfiCond12) R6 load(1, XDATA, add(CFA_XSP16, literal(-15)))
        CFI (cfiCond12) VB load(1, XDATA, add(CFA_XSP16, literal(-14)))
        CFI (cfiCond12) V0 load(1, XDATA, add(CFA_XSP16, literal(-13)))
        CFI (cfiCond12) V1 load(1, XDATA, add(CFA_XSP16, literal(-12)))
        CFI (cfiCond12) V2 load(1, XDATA, add(CFA_XSP16, literal(-11)))
        CFI (cfiCond12) V3 load(1, XDATA, add(CFA_XSP16, literal(-10)))
        CFI (cfiCond12) V4 load(1, XDATA, add(CFA_XSP16, literal(-9)))
        CFI (cfiCond12) V5 load(1, XDATA, add(CFA_XSP16, literal(-8)))
        CFI (cfiCond12) V6 load(1, XDATA, add(CFA_XSP16, literal(-7)))
        CFI (cfiCond12) R7 load(1, XDATA, add(CFA_XSP16, literal(-6)))
        CFI (cfiCond12) ?RET_LOW load(1, XDATA, add(CFA_XSP16, literal(-5)))
        CFI (cfiCond12) ?RET_HIGH load(1, XDATA, add(CFA_XSP16, literal(-4)))
        CFI (cfiCond12) ?BRET_EXT load(1, XDATA, add(CFA_XSP16, literal(-3)))
        CFI (cfiCond12) DPL0 load(1, XDATA, add(CFA_XSP16, literal(-2)))
        CFI (cfiCond12) DPH0 load(1, XDATA, add(CFA_XSP16, literal(-1)))
        CFI (cfiCond12) CFA_SP SP+0
        CFI (cfiCond12) CFA_XSP16 add(XSP16, 15)
        CFI Block cfiCond13 Using cfiCommon0
        CFI (cfiCond13) NoFunction
        CFI (cfiCond13) Conditional ??CrossCallReturnLabel_5
        CFI (cfiCond13) R6 load(1, XDATA, add(CFA_XSP16, literal(-15)))
        CFI (cfiCond13) VB load(1, XDATA, add(CFA_XSP16, literal(-14)))
        CFI (cfiCond13) V0 load(1, XDATA, add(CFA_XSP16, literal(-13)))
        CFI (cfiCond13) V1 load(1, XDATA, add(CFA_XSP16, literal(-12)))
        CFI (cfiCond13) V2 load(1, XDATA, add(CFA_XSP16, literal(-11)))
        CFI (cfiCond13) V3 load(1, XDATA, add(CFA_XSP16, literal(-10)))
        CFI (cfiCond13) V4 load(1, XDATA, add(CFA_XSP16, literal(-9)))
        CFI (cfiCond13) V5 load(1, XDATA, add(CFA_XSP16, literal(-8)))
        CFI (cfiCond13) V6 load(1, XDATA, add(CFA_XSP16, literal(-7)))
        CFI (cfiCond13) R7 load(1, XDATA, add(CFA_XSP16, literal(-6)))
        CFI (cfiCond13) ?RET_LOW load(1, XDATA, add(CFA_XSP16, literal(-5)))
        CFI (cfiCond13) ?RET_HIGH load(1, XDATA, add(CFA_XSP16, literal(-4)))
        CFI (cfiCond13) ?BRET_EXT load(1, XDATA, add(CFA_XSP16, literal(-3)))
        CFI (cfiCond13) DPL0 load(1, XDATA, add(CFA_XSP16, literal(-2)))
        CFI (cfiCond13) DPH0 load(1, XDATA, add(CFA_XSP16, literal(-1)))
        CFI (cfiCond13) CFA_SP SP+0
        CFI (cfiCond13) CFA_XSP16 add(XSP16, 15)
        CFI Block cfiCond14 Using cfiCommon0
        CFI (cfiCond14) NoFunction
        CFI (cfiCond14) Conditional ??CrossCallReturnLabel_6
        CFI (cfiCond14) R6 load(1, XDATA, add(CFA_XSP16, literal(-15)))
        CFI (cfiCond14) VB load(1, XDATA, add(CFA_XSP16, literal(-14)))
        CFI (cfiCond14) V0 load(1, XDATA, add(CFA_XSP16, literal(-13)))
        CFI (cfiCond14) V1 load(1, XDATA, add(CFA_XSP16, literal(-12)))
        CFI (cfiCond14) V2 load(1, XDATA, add(CFA_XSP16, literal(-11)))
        CFI (cfiCond14) V3 load(1, XDATA, add(CFA_XSP16, literal(-10)))
        CFI (cfiCond14) V4 load(1, XDATA, add(CFA_XSP16, literal(-9)))
        CFI (cfiCond14) V5 load(1, XDATA, add(CFA_XSP16, literal(-8)))
        CFI (cfiCond14) V6 load(1, XDATA, add(CFA_XSP16, literal(-7)))
        CFI (cfiCond14) R7 load(1, XDATA, add(CFA_XSP16, literal(-6)))
        CFI (cfiCond14) ?RET_LOW load(1, XDATA, add(CFA_XSP16, literal(-5)))
        CFI (cfiCond14) ?RET_HIGH load(1, XDATA, add(CFA_XSP16, literal(-4)))
        CFI (cfiCond14) ?BRET_EXT load(1, XDATA, add(CFA_XSP16, literal(-3)))
        CFI (cfiCond14) DPL0 load(1, XDATA, add(CFA_XSP16, literal(-2)))
        CFI (cfiCond14) DPH0 load(1, XDATA, add(CFA_XSP16, literal(-1)))
        CFI (cfiCond14) CFA_SP SP+0
        CFI (cfiCond14) CFA_XSP16 add(XSP16, 15)
        CFI Block cfiPicker15 Using cfiCommon1
        CFI (cfiPicker15) NoFunction
        CFI (cfiPicker15) Picker
        ORL     0xff,#0x1
        SETB    0xa0.0
        RET
        CFI EndBlock cfiCond11
        CFI EndBlock cfiCond12
        CFI EndBlock cfiCond13
        CFI EndBlock cfiCond14
        CFI EndBlock cfiPicker15

        RSEG BANKED_CODE:CODE:NOROOT(0)
?Subroutine1:
        CFI Block cfiCond16 Using cfiCommon0
        CFI NoFunction
        CFI Conditional ??CrossCallReturnLabel_0
        CFI R6 load(1, XDATA, add(CFA_XSP16, literal(-9)))
        CFI VB load(1, XDATA, add(CFA_XSP16, literal(-8)))
        CFI V0 load(1, XDATA, add(CFA_XSP16, literal(-7)))
        CFI R7 load(1, XDATA, add(CFA_XSP16, literal(-6)))
        CFI ?RET_LOW load(1, XDATA, add(CFA_XSP16, literal(-5)))
        CFI ?RET_HIGH load(1, XDATA, add(CFA_XSP16, literal(-4)))
        CFI ?BRET_EXT load(1, XDATA, add(CFA_XSP16, literal(-3)))
        CFI DPL0 load(1, XDATA, add(CFA_XSP16, literal(-2)))
        CFI DPH0 load(1, XDATA, add(CFA_XSP16, literal(-1)))
        CFI CFA_SP SP+0
        CFI CFA_XSP16 add(XSP16, 9)
        CFI Block cfiCond17 Using cfiCommon0
        CFI (cfiCond17) NoFunction
        CFI (cfiCond17) Conditional ??CrossCallReturnLabel_1
        CFI (cfiCond17) R6 load(1, XDATA, add(CFA_XSP16, literal(-15)))
        CFI (cfiCond17) VB load(1, XDATA, add(CFA_XSP16, literal(-14)))
        CFI (cfiCond17) V0 load(1, XDATA, add(CFA_XSP16, literal(-13)))
        CFI (cfiCond17) V1 load(1, XDATA, add(CFA_XSP16, literal(-12)))
        CFI (cfiCond17) V2 load(1, XDATA, add(CFA_XSP16, literal(-11)))
        CFI (cfiCond17) V3 load(1, XDATA, add(CFA_XSP16, literal(-10)))
        CFI (cfiCond17) V4 load(1, XDATA, add(CFA_XSP16, literal(-9)))
        CFI (cfiCond17) V5 load(1, XDATA, add(CFA_XSP16, literal(-8)))
        CFI (cfiCond17) V6 load(1, XDATA, add(CFA_XSP16, literal(-7)))
        CFI (cfiCond17) R7 load(1, XDATA, add(CFA_XSP16, literal(-6)))
        CFI (cfiCond17) ?RET_LOW load(1, XDATA, add(CFA_XSP16, literal(-5)))
        CFI (cfiCond17) ?RET_HIGH load(1, XDATA, add(CFA_XSP16, literal(-4)))
        CFI (cfiCond17) ?BRET_EXT load(1, XDATA, add(CFA_XSP16, literal(-3)))
        CFI (cfiCond17) DPL0 load(1, XDATA, add(CFA_XSP16, literal(-2)))
        CFI (cfiCond17) DPH0 load(1, XDATA, add(CFA_XSP16, literal(-1)))
        CFI (cfiCond17) CFA_SP SP+0
        CFI (cfiCond17) CFA_XSP16 add(XSP16, 15)
        CFI Block cfiPicker18 Using cfiCommon1
        CFI (cfiPicker18) NoFunction
        CFI (cfiPicker18) Picker
        LCALL   ?Subroutine3 & 0xFFFF
??CrossCallReturnLabel_2:
        ; Setup parameters for call to function delay_us
        ; Setup parameters for call to function delay_us
        LCALL   ?Subroutine3 & 0xFFFF
??CrossCallReturnLabel_3:
        RET
        CFI EndBlock cfiCond16
        CFI EndBlock cfiCond17
        CFI EndBlock cfiPicker18

        RSEG BANKED_CODE:CODE:NOROOT(0)
?Subroutine3:
        CFI Block cfiCond19 Using cfiCommon0
        CFI NoFunction
        CFI Conditional ??CrossCallReturnLabel_2, ??CrossCallReturnLabel_0
        CFI R6 load(1, XDATA, add(CFA_XSP16, literal(-9)))
        CFI VB load(1, XDATA, add(CFA_XSP16, literal(-8)))
        CFI V0 load(1, XDATA, add(CFA_XSP16, literal(-7)))
        CFI R7 load(1, XDATA, add(CFA_XSP16, literal(-6)))
        CFI ?RET_LOW load(1, XDATA, add(CFA_XSP16, literal(-5)))
        CFI ?RET_HIGH load(1, XDATA, add(CFA_XSP16, literal(-4)))
        CFI ?BRET_EXT load(1, XDATA, add(CFA_XSP16, literal(-3)))
        CFI DPL0 load(1, XDATA, add(CFA_XSP16, literal(-2)))
        CFI DPH0 load(1, XDATA, add(CFA_XSP16, literal(-1)))
        CFI CFA_SP SP+0
        CFI CFA_XSP16 add(XSP16, 9)
        CFI Block cfiCond20 Using cfiCommon0
        CFI (cfiCond20) NoFunction
        CFI (cfiCond20) Conditional ??CrossCallReturnLabel_2, ??CrossCallReturnLabel_1
        CFI (cfiCond20) R6 load(1, XDATA, add(CFA_XSP16, literal(-15)))
        CFI (cfiCond20) VB load(1, XDATA, add(CFA_XSP16, literal(-14)))
        CFI (cfiCond20) V0 load(1, XDATA, add(CFA_XSP16, literal(-13)))
        CFI (cfiCond20) V1 load(1, XDATA, add(CFA_XSP16, literal(-12)))
        CFI (cfiCond20) V2 load(1, XDATA, add(CFA_XSP16, literal(-11)))
        CFI (cfiCond20) V3 load(1, XDATA, add(CFA_XSP16, literal(-10)))
        CFI (cfiCond20) V4 load(1, XDATA, add(CFA_XSP16, literal(-9)))
        CFI (cfiCond20) V5 load(1, XDATA, add(CFA_XSP16, literal(-8)))
        CFI (cfiCond20) V6 load(1, XDATA, add(CFA_XSP16, literal(-7)))
        CFI (cfiCond20) R7 load(1, XDATA, add(CFA_XSP16, literal(-6)))
        CFI (cfiCond20) ?RET_LOW load(1, XDATA, add(CFA_XSP16, literal(-5)))
        CFI (cfiCond20) ?RET_HIGH load(1, XDATA, add(CFA_XSP16, literal(-4)))
        CFI (cfiCond20) ?BRET_EXT load(1, XDATA, add(CFA_XSP16, literal(-3)))
        CFI (cfiCond20) DPL0 load(1, XDATA, add(CFA_XSP16, literal(-2)))
        CFI (cfiCond20) DPH0 load(1, XDATA, add(CFA_XSP16, literal(-1)))
        CFI (cfiCond20) CFA_SP SP+0
        CFI (cfiCond20) CFA_XSP16 add(XSP16, 15)
        CFI Block cfiCond21 Using cfiCommon0
        CFI (cfiCond21) NoFunction
        CFI (cfiCond21) Conditional ??CrossCallReturnLabel_3, ??CrossCallReturnLabel_0
        CFI (cfiCond21) R6 load(1, XDATA, add(CFA_XSP16, literal(-9)))
        CFI (cfiCond21) VB load(1, XDATA, add(CFA_XSP16, literal(-8)))
        CFI (cfiCond21) V0 load(1, XDATA, add(CFA_XSP16, literal(-7)))
        CFI (cfiCond21) R7 load(1, XDATA, add(CFA_XSP16, literal(-6)))
        CFI (cfiCond21) ?RET_LOW load(1, XDATA, add(CFA_XSP16, literal(-5)))
        CFI (cfiCond21) ?RET_HIGH load(1, XDATA, add(CFA_XSP16, literal(-4)))
        CFI (cfiCond21) ?BRET_EXT load(1, XDATA, add(CFA_XSP16, literal(-3)))
        CFI (cfiCond21) DPL0 load(1, XDATA, add(CFA_XSP16, literal(-2)))
        CFI (cfiCond21) DPH0 load(1, XDATA, add(CFA_XSP16, literal(-1)))
        CFI (cfiCond21) CFA_SP SP+0
        CFI (cfiCond21) CFA_XSP16 add(XSP16, 9)
        CFI Block cfiCond22 Using cfiCommon0
        CFI (cfiCond22) NoFunction
        CFI (cfiCond22) Conditional ??CrossCallReturnLabel_3, ??CrossCallReturnLabel_1
        CFI (cfiCond22) R6 load(1, XDATA, add(CFA_XSP16, literal(-15)))
        CFI (cfiCond22) VB load(1, XDATA, add(CFA_XSP16, literal(-14)))
        CFI (cfiCond22) V0 load(1, XDATA, add(CFA_XSP16, literal(-13)))
        CFI (cfiCond22) V1 load(1, XDATA, add(CFA_XSP16, literal(-12)))
        CFI (cfiCond22) V2 load(1, XDATA, add(CFA_XSP16, literal(-11)))
        CFI (cfiCond22) V3 load(1, XDATA, add(CFA_XSP16, literal(-10)))
        CFI (cfiCond22) V4 load(1, XDATA, add(CFA_XSP16, literal(-9)))
        CFI (cfiCond22) V5 load(1, XDATA, add(CFA_XSP16, literal(-8)))
        CFI (cfiCond22) V6 load(1, XDATA, add(CFA_XSP16, literal(-7)))
        CFI (cfiCond22) R7 load(1, XDATA, add(CFA_XSP16, literal(-6)))
        CFI (cfiCond22) ?RET_LOW load(1, XDATA, add(CFA_XSP16, literal(-5)))
        CFI (cfiCond22) ?RET_HIGH load(1, XDATA, add(CFA_XSP16, literal(-4)))
        CFI (cfiCond22) ?BRET_EXT load(1, XDATA, add(CFA_XSP16, literal(-3)))
        CFI (cfiCond22) DPL0 load(1, XDATA, add(CFA_XSP16, literal(-2)))
        CFI (cfiCond22) DPH0 load(1, XDATA, add(CFA_XSP16, literal(-1)))
        CFI (cfiCond22) CFA_SP SP+0
        CFI (cfiCond22) CFA_XSP16 add(XSP16, 15)
        CFI Block cfiPicker23 Using cfiCommon1
        CFI (cfiPicker23) NoFunction
        CFI (cfiPicker23) Picker
        LCALL   ??delay_us?relay
        ; Setup parameters for call to function delay_us
        ; Setup parameters for call to function delay_us
        ; Setup parameters for call to function delay_us
        ; Setup parameters for call to function delay_us
        LCALL   ??delay_us?relay
        ; Setup parameters for call to function delay_us
        ; Setup parameters for call to function delay_us
        ; Setup parameters for call to function delay_us
        ; Setup parameters for call to function delay_us
        LCALL   ??delay_us?relay
        RET
        CFI EndBlock cfiCond19
        CFI EndBlock cfiCond20
        CFI EndBlock cfiCond21
        CFI EndBlock cfiCond22
        CFI EndBlock cfiPicker23

        RSEG BANK_RELAYS:CODE:REORDER:NOROOT(0)
??delay_us?relay:
        LCALL   ?BDISPATCH
        DATA
        DC24    delay_us

        RSEG BANK_RELAYS:CODE:REORDER:NOROOT(0)
??delay_ms?relay:
        LCALL   ?BDISPATCH
        DATA
        DC24    delay_ms

        RSEG BANK_RELAYS:CODE:REORDER:NOROOT(0)
??dht11_wait_for_level?relay:
        LCALL   ?BDISPATCH
        DATA
        DC24    dht11_wait_for_level

        RSEG BANK_RELAYS:CODE:REORDER:NOROOT(0)
??dht11_read_byte?relay:
        LCALL   ?BDISPATCH
        DATA
        DC24    dht11_read_byte

        RSEG BANK_RELAYS:CODE:REORDER:NOROOT(0)
??DHT11_Init?relay:
        LCALL   ?BDISPATCH
        DATA
        DC24    DHT11_Init

        RSEG BANK_RELAYS:CODE:REORDER:NOROOT(0)
??DHT11_Read?relay:
        LCALL   ?BDISPATCH
        DATA
        DC24    DHT11_Read

        END
// 
// 593 bytes in segment BANKED_CODE
//  36 bytes in segment BANK_RELAYS
//   4 bytes in segment SFR_AN
//   8 bytes in segment XDATA_Z
// 
// 629 bytes of CODE  memory
//   0 bytes of DATA  memory (+ 4 bytes shared)
//   8 bytes of XDATA memory
//
//Errors: none
//Warnings: 1
